   1              		.cpu arm7tdmi
   2              		.fpu softvfp
   3              		.eabi_attribute 20, 1
   4              		.eabi_attribute 21, 1
   5              		.eabi_attribute 23, 3
   6              		.eabi_attribute 24, 1
   7              		.eabi_attribute 25, 1
   8              		.eabi_attribute 26, 1
   9              		.eabi_attribute 30, 6
  10              		.eabi_attribute 18, 4
  11              		.file	"gpio.c"
  21              	.Ltext0:
  22              		.file 1 "../gpio.c"
 1698              		.align	2
 1699              		.global	portB_conf
 1701              	portB_conf:
 1702              	.LFB0:
   1:../gpio.c     **** #include "44b.h"
   2:../gpio.c     **** #include "gpio.h"
   3:../gpio.c     **** 
   4:../gpio.c     **** /* Port B interface implementation */
   5:../gpio.c     **** 
   6:../gpio.c     **** int portB_conf(int pin, enum port_mode mode)
   7:../gpio.c     **** {
 1703              		.loc 1 7 0
 1704              		.cfi_startproc
 1705              		@ Function supports interworking.
 1706              		@ args = 0, pretend = 0, frame = 16
 1707              		@ frame_needed = 1, uses_anonymous_args = 0
 1708 0000 0DC0A0E1 		mov	ip, sp
 1709              	.LCFI0:
 1710              		.cfi_def_cfa_register 12
 1711 0004 00D82DE9 		stmfd	sp!, {fp, ip, lr, pc}
 1712 0008 04B04CE2 		sub	fp, ip, #4
 1713              		.cfi_offset 14, -8
 1714              		.cfi_offset 13, -12
 1715              		.cfi_offset 11, -16
 1716              	.LCFI1:
 1717              		.cfi_def_cfa 11, 4
 1718 000c 10D04DE2 		sub	sp, sp, #16
 1719 0010 18000BE5 		str	r0, [fp, #-24]
 1720 0014 0130A0E1 		mov	r3, r1
 1721 0018 19304BE5 		strb	r3, [fp, #-25]
   8:../gpio.c     **** 	int ret = 0;
 1722              		.loc 1 8 0
 1723 001c 0030A0E3 		mov	r3, #0
 1724 0020 10300BE5 		str	r3, [fp, #-16]
   9:../gpio.c     **** 	if (pin < 0 || pin > 10)
 1725              		.loc 1 9 0
 1726 0024 18301BE5 		ldr	r3, [fp, #-24]
 1727 0028 000053E3 		cmp	r3, #0
 1728 002c 020000BA 		blt	.L2
 1729              		.loc 1 9 0 is_stmt 0 discriminator 1
 1730 0030 18301BE5 		ldr	r3, [fp, #-24]
 1731 0034 0A0053E3 		cmp	r3, #10
 1732 0038 010000DA 		ble	.L3
 1733              	.L2:
  10:../gpio.c     **** 		return -1;
 1734              		.loc 1 10 0 is_stmt 1
 1735 003c 0030E0E3 		mvn	r3, #0
 1736 0040 080000EA 		b	.L4
 1737              	.L3:
  11:../gpio.c     **** 
  12:../gpio.c     **** 	if (mode == SIGOUT) {}
 1738              		.loc 1 12 0
 1739 0044 19305BE5 		ldrb	r3, [fp, #-25]	@ zero_extendqisi2
 1740 0048 020053E3 		cmp	r3, #2
 1741 004c 0400000A 		beq	.L5
  13:../gpio.c     **** 		// COMPLETAR si es necesario
  14:../gpio.c     **** 	else if (mode == OUTPUT) {}
 1742              		.loc 1 14 0
 1743 0050 19305BE5 		ldrb	r3, [fp, #-25]	@ zero_extendqisi2
 1744 0054 010053E3 		cmp	r3, #1
 1745 0058 0100000A 		beq	.L5
  15:../gpio.c     **** 		// COMPLETAR: tomar la implementacion practicas anteriores
  16:../gpio.c     **** 	else
  17:../gpio.c     **** 		ret = -1;
 1746              		.loc 1 17 0
 1747 005c 0030E0E3 		mvn	r3, #0
 1748 0060 10300BE5 		str	r3, [fp, #-16]
 1749              	.L5:
  18:../gpio.c     **** 
  19:../gpio.c     **** 	return ret;
 1750              		.loc 1 19 0
 1751 0064 10301BE5 		ldr	r3, [fp, #-16]
 1752              	.L4:
  20:../gpio.c     **** }
 1753              		.loc 1 20 0
 1754 0068 0300A0E1 		mov	r0, r3
 1755 006c 0CD04BE2 		sub	sp, fp, #12
 1756 0070 00689DE8 		ldmfd	sp, {fp, sp, lr}
 1757 0074 1EFF2FE1 		bx	lr
 1758              		.cfi_endproc
 1759              	.LFE0:
 1761              		.align	2
 1762              		.global	portB_write
 1764              	portB_write:
 1765              	.LFB1:
  21:../gpio.c     **** 
  22:../gpio.c     **** int portB_write(int pin, enum digital val)
  23:../gpio.c     **** {
 1766              		.loc 1 23 0
 1767              		.cfi_startproc
 1768              		@ Function supports interworking.
 1769              		@ args = 0, pretend = 0, frame = 8
 1770              		@ frame_needed = 1, uses_anonymous_args = 0
 1771 0078 0DC0A0E1 		mov	ip, sp
 1772              	.LCFI2:
 1773              		.cfi_def_cfa_register 12
 1774 007c 00D82DE9 		stmfd	sp!, {fp, ip, lr, pc}
 1775 0080 04B04CE2 		sub	fp, ip, #4
 1776              		.cfi_offset 14, -8
 1777              		.cfi_offset 13, -12
 1778              		.cfi_offset 11, -16
 1779              	.LCFI3:
 1780              		.cfi_def_cfa 11, 4
 1781 0084 08D04DE2 		sub	sp, sp, #8
 1782 0088 10000BE5 		str	r0, [fp, #-16]
 1783 008c 0130A0E1 		mov	r3, r1
 1784 0090 11304BE5 		strb	r3, [fp, #-17]
  24:../gpio.c     **** 	if (pin < 0 || pin > 10)
 1785              		.loc 1 24 0
 1786 0094 10301BE5 		ldr	r3, [fp, #-16]
 1787 0098 000053E3 		cmp	r3, #0
 1788 009c 020000BA 		blt	.L7
 1789              		.loc 1 24 0 is_stmt 0 discriminator 1
 1790 00a0 10301BE5 		ldr	r3, [fp, #-16]
 1791 00a4 0A0053E3 		cmp	r3, #10
 1792 00a8 010000DA 		ble	.L8
 1793              	.L7:
  25:../gpio.c     **** 		return -1;
 1794              		.loc 1 25 0 is_stmt 1
 1795 00ac 0030E0E3 		mvn	r3, #0
 1796 00b0 050000EA 		b	.L9
 1797              	.L8:
  26:../gpio.c     **** 
  27:../gpio.c     **** 	if (val < 0 || val > 1)
 1798              		.loc 1 27 0
 1799 00b4 11305BE5 		ldrb	r3, [fp, #-17]	@ zero_extendqisi2
 1800 00b8 010053E3 		cmp	r3, #1
 1801 00bc 0100009A 		bls	.L10
  28:../gpio.c     **** 		return -1;
 1802              		.loc 1 28 0
 1803 00c0 0030E0E3 		mvn	r3, #0
 1804 00c4 000000EA 		b	.L9
 1805              	.L10:
  29:../gpio.c     **** 
  30:../gpio.c     **** 	if (val) {}
  31:../gpio.c     **** 		// COMPLETAR: tomar la implementacion practicas anteriores
  32:../gpio.c     **** 	else {}
  33:../gpio.c     **** 		// COMPLETAR: tomar la implementacion practicas anteriores
  34:../gpio.c     **** 
  35:../gpio.c     **** 	return 0;
 1806              		.loc 1 35 0
 1807 00c8 0030A0E3 		mov	r3, #0
 1808              	.L9:
  36:../gpio.c     **** }
 1809              		.loc 1 36 0
 1810 00cc 0300A0E1 		mov	r0, r3
 1811 00d0 0CD04BE2 		sub	sp, fp, #12
 1812 00d4 00689DE8 		ldmfd	sp, {fp, sp, lr}
 1813 00d8 1EFF2FE1 		bx	lr
 1814              		.cfi_endproc
 1815              	.LFE1:
 1817              		.align	2
 1818              		.global	portG_conf
 1820              	portG_conf:
 1821              	.LFB2:
  37:../gpio.c     **** 
  38:../gpio.c     **** /* Port G interface implementation */
  39:../gpio.c     **** 
  40:../gpio.c     **** int portG_conf(int pin, enum port_mode mode)
  41:../gpio.c     **** {
 1822              		.loc 1 41 0
 1823              		.cfi_startproc
 1824              		@ Function supports interworking.
 1825              		@ args = 0, pretend = 0, frame = 16
 1826              		@ frame_needed = 1, uses_anonymous_args = 0
 1827 00dc 0DC0A0E1 		mov	ip, sp
 1828              	.LCFI4:
 1829              		.cfi_def_cfa_register 12
 1830 00e0 00D82DE9 		stmfd	sp!, {fp, ip, lr, pc}
 1831 00e4 04B04CE2 		sub	fp, ip, #4
 1832              		.cfi_offset 14, -8
 1833              		.cfi_offset 13, -12
 1834              		.cfi_offset 11, -16
 1835              	.LCFI5:
 1836              		.cfi_def_cfa 11, 4
 1837 00e8 10D04DE2 		sub	sp, sp, #16
 1838 00ec 18000BE5 		str	r0, [fp, #-24]
 1839 00f0 0130A0E1 		mov	r3, r1
 1840 00f4 19304BE5 		strb	r3, [fp, #-25]
  42:../gpio.c     **** 	int pos  = pin*2;
 1841              		.loc 1 42 0
 1842 00f8 18301BE5 		ldr	r3, [fp, #-24]
 1843 00fc 8330A0E1 		mov	r3, r3, asl #1
 1844 0100 10300BE5 		str	r3, [fp, #-16]
  43:../gpio.c     **** 
  44:../gpio.c     **** 	if (pin < 0 || pin > 7)
 1845              		.loc 1 44 0
 1846 0104 18301BE5 		ldr	r3, [fp, #-24]
 1847 0108 000053E3 		cmp	r3, #0
 1848 010c 020000BA 		blt	.L12
 1849              		.loc 1 44 0 is_stmt 0 discriminator 1
 1850 0110 18301BE5 		ldr	r3, [fp, #-24]
 1851 0114 070053E3 		cmp	r3, #7
 1852 0118 010000DA 		ble	.L13
 1853              	.L12:
  45:../gpio.c     **** 		return -1;
 1854              		.loc 1 45 0 is_stmt 1
 1855 011c 0030E0E3 		mvn	r3, #0
 1856 0120 0B0000EA 		b	.L14
 1857              	.L13:
  46:../gpio.c     **** 
  47:../gpio.c     **** 	switch (mode) {
 1858              		.loc 1 47 0
 1859 0124 19305BE5 		ldrb	r3, [fp, #-25]	@ zero_extendqisi2
 1860 0128 030053E3 		cmp	r3, #3
 1861 012c 03F19F97 		ldrls	pc, [pc, r3, asl #2]
 1862 0130 030000EA 		b	.L15
 1863              	.L20:
 1864 0134 4C010000 		.word	.L22
 1865 0138 4C010000 		.word	.L22
 1866 013c 4C010000 		.word	.L22
 1867 0140 4C010000 		.word	.L22
 1868              	.L15:
  48:../gpio.c     **** 		case INPUT:
  49:../gpio.c     **** 		// COMPLETAR: tomar la implementación prácticas anteriores
  50:../gpio.c     **** 			break;
  51:../gpio.c     **** 		case OUTPUT:
  52:../gpio.c     **** 		// COMPLETAR: tomar la implementación prácticas anteriores
  53:../gpio.c     **** 			break;
  54:../gpio.c     **** 		case SIGOUT:
  55:../gpio.c     **** 		// COMPLETAR: tomar la implementación prácticas anteriores
  56:../gpio.c     **** 			break;
  57:../gpio.c     **** 		case EINT:
  58:../gpio.c     **** 		// COMPLETAR: tomar la implementación prácticas anteriores
  59:../gpio.c     **** 			break;
  60:../gpio.c     **** 		default:
  61:../gpio.c     **** 			return -1;
 1869              		.loc 1 61 0
 1870 0144 0030E0E3 		mvn	r3, #0
 1871 0148 010000EA 		b	.L14
 1872              	.L22:
  50:../gpio.c     **** 			break;
 1873              		.loc 1 50 0
 1874 014c 0000A0E1 		mov	r0, r0	@ nop
 1875              	.L21:
  62:../gpio.c     **** 	}
  63:../gpio.c     **** 
  64:../gpio.c     **** 	return 0;
 1876              		.loc 1 64 0
 1877 0150 0030A0E3 		mov	r3, #0
 1878              	.L14:
  65:../gpio.c     **** }
 1879              		.loc 1 65 0
 1880 0154 0300A0E1 		mov	r0, r3
 1881 0158 0CD04BE2 		sub	sp, fp, #12
 1882 015c 00689DE8 		ldmfd	sp, {fp, sp, lr}
 1883 0160 1EFF2FE1 		bx	lr
 1884              		.cfi_endproc
 1885              	.LFE2:
 1887              		.align	2
 1888              		.global	portG_eint_trig
 1890              	portG_eint_trig:
 1891              	.LFB3:
  66:../gpio.c     **** 
  67:../gpio.c     **** int portG_eint_trig(int pin, enum trigger trig)
  68:../gpio.c     **** {
 1892              		.loc 1 68 0
 1893              		.cfi_startproc
 1894              		@ Function supports interworking.
 1895              		@ args = 0, pretend = 0, frame = 16
 1896              		@ frame_needed = 1, uses_anonymous_args = 0
 1897 0164 0DC0A0E1 		mov	ip, sp
 1898              	.LCFI6:
 1899              		.cfi_def_cfa_register 12
 1900 0168 00D82DE9 		stmfd	sp!, {fp, ip, lr, pc}
 1901 016c 04B04CE2 		sub	fp, ip, #4
 1902              		.cfi_offset 14, -8
 1903              		.cfi_offset 13, -12
 1904              		.cfi_offset 11, -16
 1905              	.LCFI7:
 1906              		.cfi_def_cfa 11, 4
 1907 0170 10D04DE2 		sub	sp, sp, #16
 1908 0174 18000BE5 		str	r0, [fp, #-24]
 1909 0178 0130A0E1 		mov	r3, r1
 1910 017c 19304BE5 		strb	r3, [fp, #-25]
  69:../gpio.c     **** 	int pos = pin*4;
 1911              		.loc 1 69 0
 1912 0180 18301BE5 		ldr	r3, [fp, #-24]
 1913 0184 0331A0E1 		mov	r3, r3, asl #2
 1914 0188 10300BE5 		str	r3, [fp, #-16]
  70:../gpio.c     **** 
  71:../gpio.c     **** 	if (pin < 0 || pin > 7)
 1915              		.loc 1 71 0
 1916 018c 18301BE5 		ldr	r3, [fp, #-24]
 1917 0190 000053E3 		cmp	r3, #0
 1918 0194 020000BA 		blt	.L24
 1919              		.loc 1 71 0 is_stmt 0 discriminator 1
 1920 0198 18301BE5 		ldr	r3, [fp, #-24]
 1921 019c 070053E3 		cmp	r3, #7
 1922 01a0 010000DA 		ble	.L25
 1923              	.L24:
  72:../gpio.c     **** 		return -1;
 1924              		.loc 1 72 0 is_stmt 1
 1925 01a4 0030E0E3 		mvn	r3, #0
 1926 01a8 0C0000EA 		b	.L26
 1927              	.L25:
  73:../gpio.c     **** 
  74:../gpio.c     **** switch (trig) {
 1928              		.loc 1 74 0
 1929 01ac 19305BE5 		ldrb	r3, [fp, #-25]	@ zero_extendqisi2
 1930 01b0 040053E3 		cmp	r3, #4
 1931 01b4 03F19F97 		ldrls	pc, [pc, r3, asl #2]
 1932 01b8 040000EA 		b	.L27
 1933              	.L33:
 1934 01bc D8010000 		.word	.L35
 1935 01c0 D8010000 		.word	.L35
 1936 01c4 D8010000 		.word	.L35
 1937 01c8 D8010000 		.word	.L35
 1938 01cc D8010000 		.word	.L35
 1939              	.L27:
  75:../gpio.c     **** 		case LLOW:
  76:../gpio.c     **** 			// COMPLETAR: poner en rEXTINT a partir de la posición pos tres bits
  77:../gpio.c     **** 			// a 000, para configurar interrupciones externas por nivel bajo
  78:../gpio.c     **** 			break;
  79:../gpio.c     **** 		case LHIGH:
  80:../gpio.c     **** 			// COMPLETAR: poner en rEXTINT a partir de la posición pos tres bits
  81:../gpio.c     **** 			// a 001, para configurar interrupciones externas por nivel alto
  82:../gpio.c     **** 			break;
  83:../gpio.c     **** 		case FALLING:
  84:../gpio.c     **** 			// COMPLETAR: poner en rEXTINT a partir de la posición pos tres bits
  85:../gpio.c     **** 			// a 010, para configurar interrupciones externas por flanco de
  86:../gpio.c     **** 			// bajada
  87:../gpio.c     **** 			break;
  88:../gpio.c     **** 		case RISING:
  89:../gpio.c     **** 			// COMPLETAR: poner en rEXTINT a partir de la posición pos tres bits
  90:../gpio.c     **** 			// a 100, para configurar interrupciones externas por flanco de
  91:../gpio.c     **** 			// subida
  92:../gpio.c     **** 			break;
  93:../gpio.c     **** 		case EDGE:
  94:../gpio.c     **** 			// COMPLETAR: poner en rEXTINT a partir de la posición pos tres bits
  95:../gpio.c     **** 			// a 110, para configurar interrupciones externas por cualquier
  96:../gpio.c     **** 			// flanco
  97:../gpio.c     **** 			break;
  98:../gpio.c     **** 		default:
  99:../gpio.c     **** 			return -1;
 1940              		.loc 1 99 0
 1941 01d0 0030E0E3 		mvn	r3, #0
 1942 01d4 010000EA 		b	.L26
 1943              	.L35:
  78:../gpio.c     **** 			break;
 1944              		.loc 1 78 0
 1945 01d8 0000A0E1 		mov	r0, r0	@ nop
 1946              	.L34:
 100:../gpio.c     **** 	}
 101:../gpio.c     **** 	return 0;
 1947              		.loc 1 101 0
 1948 01dc 0030A0E3 		mov	r3, #0
 1949              	.L26:
 102:../gpio.c     **** }
 1950              		.loc 1 102 0
 1951 01e0 0300A0E1 		mov	r0, r3
 1952 01e4 0CD04BE2 		sub	sp, fp, #12
 1953 01e8 00689DE8 		ldmfd	sp, {fp, sp, lr}
 1954 01ec 1EFF2FE1 		bx	lr
 1955              		.cfi_endproc
 1956              	.LFE3:
 1958              		.align	2
 1959              		.global	portG_write
 1961              	portG_write:
 1962              	.LFB4:
 103:../gpio.c     **** 
 104:../gpio.c     **** int portG_write(int pin, enum digital val)
 105:../gpio.c     **** {
 1963              		.loc 1 105 0
 1964              		.cfi_startproc
 1965              		@ Function supports interworking.
 1966              		@ args = 0, pretend = 0, frame = 16
 1967              		@ frame_needed = 1, uses_anonymous_args = 0
 1968 01f0 0DC0A0E1 		mov	ip, sp
 1969              	.LCFI8:
 1970              		.cfi_def_cfa_register 12
 1971 01f4 00D82DE9 		stmfd	sp!, {fp, ip, lr, pc}
 1972 01f8 04B04CE2 		sub	fp, ip, #4
 1973              		.cfi_offset 14, -8
 1974              		.cfi_offset 13, -12
 1975              		.cfi_offset 11, -16
 1976              	.LCFI9:
 1977              		.cfi_def_cfa 11, 4
 1978 01fc 10D04DE2 		sub	sp, sp, #16
 1979 0200 18000BE5 		str	r0, [fp, #-24]
 1980 0204 0130A0E1 		mov	r3, r1
 1981 0208 19304BE5 		strb	r3, [fp, #-25]
 106:../gpio.c     **** 	int pos = pin*2;
 1982              		.loc 1 106 0
 1983 020c 18301BE5 		ldr	r3, [fp, #-24]
 1984 0210 8330A0E1 		mov	r3, r3, asl #1
 1985 0214 10300BE5 		str	r3, [fp, #-16]
 107:../gpio.c     **** 
 108:../gpio.c     **** 	if (pin < 0 || pin > 7)
 1986              		.loc 1 108 0
 1987 0218 18301BE5 		ldr	r3, [fp, #-24]
 1988 021c 000053E3 		cmp	r3, #0
 1989 0220 020000BA 		blt	.L37
 1990              		.loc 1 108 0 is_stmt 0 discriminator 1
 1991 0224 18301BE5 		ldr	r3, [fp, #-24]
 1992 0228 070053E3 		cmp	r3, #7
 1993 022c 010000DA 		ble	.L38
 1994              	.L37:
 109:../gpio.c     **** 		return -1;
 1995              		.loc 1 109 0 is_stmt 1
 1996 0230 0030E0E3 		mvn	r3, #0
 1997 0234 120000EA 		b	.L39
 1998              	.L38:
 110:../gpio.c     **** 
 111:../gpio.c     **** 	if (val < 0 || val > 1)
 1999              		.loc 1 111 0
 2000 0238 19305BE5 		ldrb	r3, [fp, #-25]	@ zero_extendqisi2
 2001 023c 010053E3 		cmp	r3, #1
 2002 0240 0100009A 		bls	.L40
 112:../gpio.c     **** 		return -1;
 2003              		.loc 1 112 0
 2004 0244 0030E0E3 		mvn	r3, #0
 2005 0248 0D0000EA 		b	.L39
 2006              	.L40:
 113:../gpio.c     **** 
 114:../gpio.c     **** 	if ((rPCONG & (0x3 << pos)) != (0x1 << pos))
 2007              		.loc 1 114 0
 2008 024c 40309FE5 		ldr	r3, .L42
 2009 0250 002093E5 		ldr	r2, [r3, #0]
 2010 0254 0310A0E3 		mov	r1, #3
 2011 0258 10301BE5 		ldr	r3, [fp, #-16]
 2012 025c 1133A0E1 		mov	r3, r1, asl r3
 2013 0260 032002E0 		and	r2, r2, r3
 2014 0264 0110A0E3 		mov	r1, #1
 2015 0268 10301BE5 		ldr	r3, [fp, #-16]
 2016 026c 1133A0E1 		mov	r3, r1, asl r3
 2017 0270 030052E1 		cmp	r2, r3
 2018 0274 0100000A 		beq	.L41
 115:../gpio.c     **** 		return -1;
 2019              		.loc 1 115 0
 2020 0278 0030E0E3 		mvn	r3, #0
 2021 027c 000000EA 		b	.L39
 2022              	.L41:
 116:../gpio.c     **** 
 117:../gpio.c     **** 	if (val) {}
 118:../gpio.c     **** 		// COMPLETAR: tomar la implementación prácticas anteriores
 119:../gpio.c     **** 	else {}
 120:../gpio.c     **** 		// COMPLETAR: tomar la implementación prácticas anteriores
 121:../gpio.c     **** 
 122:../gpio.c     **** 	return 0;
 2023              		.loc 1 122 0
 2024 0280 0030A0E3 		mov	r3, #0
 2025              	.L39:
 123:../gpio.c     **** }
 2026              		.loc 1 123 0
 2027 0284 0300A0E1 		mov	r0, r3
 2028 0288 0CD04BE2 		sub	sp, fp, #12
 2029 028c 00689DE8 		ldmfd	sp, {fp, sp, lr}
 2030 0290 1EFF2FE1 		bx	lr
 2031              	.L43:
 2032              		.align	2
 2033              	.L42:
 2034 0294 4000D201 		.word	30539840
 2035              		.cfi_endproc
 2036              	.LFE4:
 2038              		.align	2
 2039              		.global	portG_read
 2041              	portG_read:
 2042              	.LFB5:
 124:../gpio.c     **** 
 125:../gpio.c     **** int portG_read(int pin, enum digital* val)
 126:../gpio.c     **** {
 2043              		.loc 1 126 0
 2044              		.cfi_startproc
 2045              		@ Function supports interworking.
 2046              		@ args = 0, pretend = 0, frame = 16
 2047              		@ frame_needed = 1, uses_anonymous_args = 0
 2048 0298 0DC0A0E1 		mov	ip, sp
 2049              	.LCFI10:
 2050              		.cfi_def_cfa_register 12
 2051 029c 00D82DE9 		stmfd	sp!, {fp, ip, lr, pc}
 2052 02a0 04B04CE2 		sub	fp, ip, #4
 2053              		.cfi_offset 14, -8
 2054              		.cfi_offset 13, -12
 2055              		.cfi_offset 11, -16
 2056              	.LCFI11:
 2057              		.cfi_def_cfa 11, 4
 2058 02a4 10D04DE2 		sub	sp, sp, #16
 2059 02a8 18000BE5 		str	r0, [fp, #-24]
 2060 02ac 1C100BE5 		str	r1, [fp, #-28]
 127:../gpio.c     **** 	int pos = pin*2;
 2061              		.loc 1 127 0
 2062 02b0 18301BE5 		ldr	r3, [fp, #-24]
 2063 02b4 8330A0E1 		mov	r3, r3, asl #1
 2064 02b8 10300BE5 		str	r3, [fp, #-16]
 128:../gpio.c     **** 
 129:../gpio.c     **** 	if (pin < 0 || pin > 7)
 2065              		.loc 1 129 0
 2066 02bc 18301BE5 		ldr	r3, [fp, #-24]
 2067 02c0 000053E3 		cmp	r3, #0
 2068 02c4 020000BA 		blt	.L45
 2069              		.loc 1 129 0 is_stmt 0 discriminator 1
 2070 02c8 18301BE5 		ldr	r3, [fp, #-24]
 2071 02cc 070053E3 		cmp	r3, #7
 2072 02d0 010000DA 		ble	.L46
 2073              	.L45:
 130:../gpio.c     **** 		return -1;
 2074              		.loc 1 130 0 is_stmt 1
 2075 02d4 0030E0E3 		mvn	r3, #0
 2076 02d8 0C0000EA 		b	.L47
 2077              	.L46:
 131:../gpio.c     **** 
 132:../gpio.c     **** 	if (rPCONG & (0x3 << pos))
 2078              		.loc 1 132 0
 2079 02dc 3C309FE5 		ldr	r3, .L49
 2080 02e0 002093E5 		ldr	r2, [r3, #0]
 2081 02e4 0310A0E3 		mov	r1, #3
 2082 02e8 10301BE5 		ldr	r3, [fp, #-16]
 2083 02ec 1133A0E1 		mov	r3, r1, asl r3
 2084 02f0 033002E0 		and	r3, r2, r3
 2085 02f4 000053E3 		cmp	r3, #0
 2086 02f8 0100000A 		beq	.L48
 133:../gpio.c     **** 		return -1;
 2087              		.loc 1 133 0
 2088 02fc 0030E0E3 		mvn	r3, #0
 2089 0300 020000EA 		b	.L47
 2090              	.L48:
 134:../gpio.c     **** 
 135:../gpio.c     **** 	if (rPDATG & (0x1 << pin)) {}
 2091              		.loc 1 135 0
 2092 0304 18309FE5 		ldr	r3, .L49+4
 2093 0308 003093E5 		ldr	r3, [r3, #0]
 136:../gpio.c     **** 		// COMPLETAR: tomar la implementación prácticas anteriores
 137:../gpio.c     **** 	else {}
 138:../gpio.c     **** 		// COMPLETAR: tomar la implementación prácticas anteriores
 139:../gpio.c     **** 
 140:../gpio.c     **** 	return 0;
 2094              		.loc 1 140 0
 2095 030c 0030A0E3 		mov	r3, #0
 2096              	.L47:
 141:../gpio.c     **** }
 2097              		.loc 1 141 0
 2098 0310 0300A0E1 		mov	r0, r3
 2099 0314 0CD04BE2 		sub	sp, fp, #12
 2100 0318 00689DE8 		ldmfd	sp, {fp, sp, lr}
 2101 031c 1EFF2FE1 		bx	lr
 2102              	.L50:
 2103              		.align	2
 2104              	.L49:
 2105 0320 4000D201 		.word	30539840
 2106 0324 4400D201 		.word	30539844
 2107              		.cfi_endproc
 2108              	.LFE5:
 2110              		.align	2
 2111              		.global	portG_conf_pup
 2113              	portG_conf_pup:
 2114              	.LFB6:
 142:../gpio.c     **** 
 143:../gpio.c     **** int portG_conf_pup(int pin, enum enable st)
 144:../gpio.c     **** {
 2115              		.loc 1 144 0
 2116              		.cfi_startproc
 2117              		@ Function supports interworking.
 2118              		@ args = 0, pretend = 0, frame = 8
 2119              		@ frame_needed = 1, uses_anonymous_args = 0
 2120 0328 0DC0A0E1 		mov	ip, sp
 2121              	.LCFI12:
 2122              		.cfi_def_cfa_register 12
 2123 032c 00D82DE9 		stmfd	sp!, {fp, ip, lr, pc}
 2124 0330 04B04CE2 		sub	fp, ip, #4
 2125              		.cfi_offset 14, -8
 2126              		.cfi_offset 13, -12
 2127              		.cfi_offset 11, -16
 2128              	.LCFI13:
 2129              		.cfi_def_cfa 11, 4
 2130 0334 08D04DE2 		sub	sp, sp, #8
 2131 0338 10000BE5 		str	r0, [fp, #-16]
 2132 033c 0130A0E1 		mov	r3, r1
 2133 0340 11304BE5 		strb	r3, [fp, #-17]
 145:../gpio.c     **** 	if (pin < 0 || pin > 7)
 2134              		.loc 1 145 0
 2135 0344 10301BE5 		ldr	r3, [fp, #-16]
 2136 0348 000053E3 		cmp	r3, #0
 2137 034c 020000BA 		blt	.L52
 2138              		.loc 1 145 0 is_stmt 0 discriminator 1
 2139 0350 10301BE5 		ldr	r3, [fp, #-16]
 2140 0354 070053E3 		cmp	r3, #7
 2141 0358 010000DA 		ble	.L53
 2142              	.L52:
 146:../gpio.c     **** 		return -1;
 2143              		.loc 1 146 0 is_stmt 1
 2144 035c 0030E0E3 		mvn	r3, #0
 2145 0360 080000EA 		b	.L54
 2146              	.L53:
 147:../gpio.c     **** 
 148:../gpio.c     **** 	if (st != ENABLE && st != DISABLE)
 2147              		.loc 1 148 0
 2148 0364 11305BE5 		ldrb	r3, [fp, #-17]	@ zero_extendqisi2
 2149 0368 010053E3 		cmp	r3, #1
 2150 036c 0400000A 		beq	.L55
 2151              		.loc 1 148 0 is_stmt 0 discriminator 1
 2152 0370 11305BE5 		ldrb	r3, [fp, #-17]	@ zero_extendqisi2
 2153 0374 000053E3 		cmp	r3, #0
 2154 0378 0100000A 		beq	.L55
 149:../gpio.c     **** 		return -1;
 2155              		.loc 1 149 0 is_stmt 1
 2156 037c 0030E0E3 		mvn	r3, #0
 2157 0380 000000EA 		b	.L54
 2158              	.L55:
 150:../gpio.c     **** 
 151:../gpio.c     **** 	if (st == ENABLE) {}
 152:../gpio.c     **** 		// COMPLETAR: tomar la implementación prácticas anteriores
 153:../gpio.c     **** 	else {}
 154:../gpio.c     **** 		// COMPLETAR: tomar la implementación prácticas anteriores
 155:../gpio.c     **** 
 156:../gpio.c     **** 	return 0;
 2159              		.loc 1 156 0
 2160 0384 0030A0E3 		mov	r3, #0
 2161              	.L54:
 157:../gpio.c     **** }
 2162              		.loc 1 157 0
 2163 0388 0300A0E1 		mov	r0, r3
 2164 038c 0CD04BE2 		sub	sp, fp, #12
 2165 0390 00689DE8 		ldmfd	sp, {fp, sp, lr}
 2166 0394 1EFF2FE1 		bx	lr
 2167              		.cfi_endproc
 2168              	.LFE6:
 2170              	.Letext0: